target datalayout = "e-m:e-p270:32:32-p271:32:32-p272:64:64-i64:64-i128:128-f80:128-n8:16:32:64-S128"
target triple = "x86_64-pc-linux-gnu"

%struct.darktable_t = type { %struct.dt_codepath_t, i32, i32, ptr, ptr, ptr, ptr, ptr, ptr, ptr, ptr, ptr, ptr, ptr, ptr, ptr, ptr, ptr, ptr, ptr, ptr, ptr, ptr, ptr, ptr, ptr, ptr, ptr, ptr, ptr, [64 x %struct.dt_pthread_mutex_t], %struct.dt_pthread_mutex_t, %struct.dt_pthread_mutex_t, %struct.dt_pthread_mutex_t, %struct.dt_pthread_mutex_t, %struct.dt_pthread_mutex_t, ptr, ptr, ptr, ptr, ptr, ptr, ptr, ptr, ptr, ptr, ptr, ptr, ptr, %struct.dt_lua_state_t, ptr, double, ptr, i32, [47 x i32], i32, i32, ptr, ptr, %struct.dt_sys_resources_t, %struct.dt_backthumb_t, %struct.dt_gimp_t }
%struct.dt_codepath_t = type { i8, [3 x i8] }
%struct.dt_pthread_mutex_t = type { %union.pthread_mutex_t }
%union.pthread_mutex_t = type { %struct.__pthread_mutex_s }
%struct.__pthread_mutex_s = type { i32, i32, i32, i32, i32, i16, i16, %struct.__pthread_internal_list }
%struct.__pthread_internal_list = type { ptr, ptr }
%struct.dt_lua_state_t = type { i32 }
%struct.dt_sys_resources_t = type { i64, i64, ptr, ptr, i32 }
%struct.dt_backthumb_t = type { double, double, i32, i32, i32, i32 }
%struct.dt_gimp_t = type { i32, ptr, ptr, i32, i32 }
%struct.dt_action_t = type { i32, ptr, ptr, ptr, ptr, ptr }
%struct.dt_control_t = type { i32, ptr, %struct.dt_action_t, %struct.dt_action_t, %struct.dt_action_t, %struct.dt_action_t, %struct.dt_action_t, %struct.dt_action_t, %struct.dt_action_t, %struct.dt_action_t, %struct.dt_action_t, %struct.dt_action_t, %struct.dt_action_t, ptr, ptr, ptr, i32, ptr, i32, i32, ptr, ptr, [256 x i8], i32, double, i32, i32, i64, i32, i32, i32, double, double, i32, i32, i32, i32, i32, i32, [8 x [1000 x i8]], i32, i32, %struct.dt_pthread_mutex_t, i32, i32, [2 x [300 x i8]], i32, i32, %struct.dt_pthread_mutex_t, %struct.dt_pthread_mutex_t, %struct.dt_pthread_mutex_t, double, i32, i32, i32, %struct.dt_pthread_mutex_t, %struct.dt_pthread_mutex_t, %union.pthread_cond_t, i32, ptr, i64, i64, ptr, [5 x ptr], [5 x i64], %struct.dt_pthread_mutex_t, [3 x ptr], [3 x i8], [3 x i64], %struct.anon.0, %struct.anon.2 }
%union.pthread_cond_t = type { %struct.__pthread_cond_s }
%struct.__pthread_cond_s = type { %union.__atomic_wide_counter, %union.__atomic_wide_counter, [2 x i32], [2 x i32], i32, i32, [2 x i32] }
%union.__atomic_wide_counter = type { i64 }
%struct.anon.0 = type { ptr, i64, i64, double, %struct.dt_pthread_mutex_t, %struct.anon.1 }
%struct.anon.1 = type { ptr, ptr, ptr, ptr, ptr, ptr }
%struct.anon.2 = type { %struct.anon.3 }
%struct.anon.3 = type { ptr, ptr }

@darktable = external global %struct.darktable_t, align 8
@.str.29 = private unnamed_addr constant [46 x i8] c"[dt_control_shutdown] closing control threads\00", align 1
@.str.30 = private unnamed_addr constant [38 x i8] c"[dt_control_shutdown] joined kicker%s\00", align 1
@.str.31 = private unnamed_addr constant [8 x i8] c", error\00", align 1
@.str.32 = private unnamed_addr constant [1 x i8] zeroinitializer, align 1
@.str.33 = private unnamed_addr constant [45 x i8] c"[dt_control_shutdown] joined num_thread %i%s\00", align 1
@.str.34 = private unnamed_addr constant [41 x i8] c"[dt_control_shutdown] joined worker %i%s\00", align 1

; Function Attrs: inlinehint nounwind uwtable
define internal i32 @dt_pthread_mutex_unlock(ptr noundef %0) #4 {
  %2 = alloca ptr, align 8
  store ptr %0, ptr %2, align 8, !tbaa !118
  %3 = load ptr, ptr %2, align 8, !tbaa !118
  %4 = getelementptr inbounds nuw %struct.dt_pthread_mutex_t, ptr %3, i32 0, i32 0
  %5 = call i32 @pthread_mutex_unlock(ptr noundef %4) #10
  ret i32 %5
}

; Function Attrs: inlinehint nounwind uwtable
define available_externally i32 @dt_atomic_exch_int(ptr noundef %0, i32 noundef %1) #4 {
  %3 = alloca ptr, align 8
  %4 = alloca i32, align 4
  %5 = alloca i32, align 4
  %6 = alloca i32, align 4
  store ptr %0, ptr %3, align 8, !tbaa !6
  store i32 %1, ptr %4, align 4, !tbaa !10
  %7 = load ptr, ptr %3, align 8, !tbaa !6
  %8 = load i32, ptr %4, align 4, !tbaa !10
  store i32 %8, ptr %5, align 4, !tbaa !10
  %9 = load i32, ptr %5, align 4
  %10 = atomicrmw xchg ptr %7, i32 %9 seq_cst, align 4
  store i32 %10, ptr %6, align 4
  %11 = load i32, ptr %6, align 4, !tbaa !10
  ret i32 %11
}

; Function Attrs: inlinehint nounwind uwtable
define internal i32 @dt_pthread_mutex_lock(ptr noundef %0) #4 {
  %2 = alloca ptr, align 8
  store ptr %0, ptr %2, align 8, !tbaa !118
  %3 = load ptr, ptr %2, align 8, !tbaa !118
  %4 = getelementptr inbounds nuw %struct.dt_pthread_mutex_t, ptr %3, i32 0, i32 0
  %5 = call i32 @pthread_mutex_lock(ptr noundef %4) #10
  ret i32 %5
}

; Function Attrs: nounwind uwtable
define void @dt_control_shutdown(ptr noundef %0) #0 {
  %2 = alloca ptr, align 8
  %3 = alloca i32, align 4
  %4 = alloca i32, align 4
  %5 = alloca i32, align 4
  %6 = alloca i32, align 4
  %7 = alloca i32, align 4
  store ptr %0, ptr %2, align 8, !tbaa !73
  %8 = load ptr, ptr %2, align 8, !tbaa !73
  %9 = icmp ne ptr %8, null
  br i1 %9, label %11, label %10

10:                                               ; preds = %1
  br label %140

11:                                               ; preds = %1
  %12 = load ptr, ptr %2, align 8, !tbaa !73
  %13 = getelementptr inbounds nuw %struct.dt_control_t, ptr %12, i32 0, i32 56
  %14 = call i32 @dt_pthread_mutex_lock(ptr noundef %13)
  call void @llvm.lifetime.start.p0(i64 4, ptr %3) #10
  %15 = load ptr, ptr %2, align 8, !tbaa !73
  %16 = getelementptr inbounds nuw %struct.dt_control_t, ptr %15, i32 0, i32 52
  %17 = call i32 @dt_atomic_exch_int(ptr noundef %16, i32 noundef 0)
  %18 = icmp eq i32 %17, -1
  %19 = zext i1 %18 to i32
  store i32 %19, ptr %3, align 4, !tbaa !10
  %20 = load ptr, ptr %2, align 8, !tbaa !73
  %21 = getelementptr inbounds nuw %struct.dt_control_t, ptr %20, i32 0, i32 57
  %22 = call i32 @pthread_cond_broadcast(ptr noundef %21) #10
  %23 = load ptr, ptr %2, align 8, !tbaa !73
  %24 = getelementptr inbounds nuw %struct.dt_control_t, ptr %23, i32 0, i32 56
  %25 = call i32 @dt_pthread_mutex_unlock(ptr noundef %24)
  call void @llvm.lifetime.start.p0(i64 4, ptr %4) #10
  store i32 0, ptr %4, align 4, !tbaa !10
  %26 = load ptr, ptr %2, align 8, !tbaa !73
  %27 = getelementptr inbounds nuw %struct.dt_control_t, ptr %26, i32 0, i32 61
  %28 = load i64, ptr %27, align 8, !tbaa !131
  %29 = call i32 @dt_pthread_join(i64 noundef %28)
  store i32 %29, ptr %4, align 4, !tbaa !10
  %30 = load i32, ptr %3, align 4, !tbaa !10
  %31 = icmp ne i32 %30, 0
  br i1 %31, label %33, label %32

32:                                               ; preds = %11
  store i32 1, ptr %5, align 4
  br label %138

33:                                               ; preds = %11
  br label %34

34:                                               ; preds = %33
  %35 = load i32, ptr getelementptr inbounds nuw (%struct.darktable_t, ptr @darktable, i32 0, i32 2), align 8, !tbaa !132
  %36 = and i32 2, %35
  %37 = icmp ne i32 %36, 0
  br i1 %37, label %38, label %44

38:                                               ; preds = %34
  %39 = load i32, ptr getelementptr inbounds nuw (%struct.darktable_t, ptr @darktable, i32 0, i32 2), align 8, !tbaa !132
  %40 = xor i32 %39, -1
  %41 = and i32 0, %40
  %42 = icmp ne i32 %41, 0
  br i1 %42, label %44, label %43

43:                                               ; preds = %38
  call void (ptr, ...) @dt_print_ext(ptr noundef @.str.29)
  br label %44

44:                                               ; preds = %43, %38, %34
  br label %45

45:                                               ; preds = %44
  br label %46

46:                                               ; preds = %45
  %47 = load ptr, ptr %2, align 8, !tbaa !73
  %48 = getelementptr inbounds nuw %struct.dt_control_t, ptr %47, i32 0, i32 60
  %49 = load i64, ptr %48, align 8, !tbaa !133
  %50 = call i32 @dt_pthread_join(i64 noundef %49)
  store i32 %50, ptr %4, align 4, !tbaa !10
  br label %51

51:                                               ; preds = %46
  %52 = load i32, ptr getelementptr inbounds nuw (%struct.darktable_t, ptr @darktable, i32 0, i32 2), align 8, !tbaa !132
  %53 = and i32 2, %52
  %54 = icmp ne i32 %53, 0
  br i1 %54, label %55, label %64

55:                                               ; preds = %51
  %56 = load i32, ptr getelementptr inbounds nuw (%struct.darktable_t, ptr @darktable, i32 0, i32 2), align 8, !tbaa !132
  %57 = xor i32 %56, -1
  %58 = and i32 0, %57
  %59 = icmp ne i32 %58, 0
  br i1 %59, label %64, label %60

60:                                               ; preds = %55
  %61 = load i32, ptr %4, align 4, !tbaa !10
  %62 = icmp ne i32 %61, 0
  %63 = select i1 %62, ptr @.str.31, ptr @.str.32
  call void (ptr, ...) @dt_print_ext(ptr noundef @.str.30, ptr noundef %63)
  br label %64

64:                                               ; preds = %60, %55, %51
  br label %65

65:                                               ; preds = %64
  br label %66

66:                                               ; preds = %65
  call void @llvm.lifetime.start.p0(i64 4, ptr %6) #10
  store i32 0, ptr %6, align 4, !tbaa !10
  br label %67

67:                                               ; preds = %101, %66
  %68 = load i32, ptr %6, align 4, !tbaa !10
  %69 = load ptr, ptr %2, align 8, !tbaa !73
  %70 = getelementptr inbounds nuw %struct.dt_control_t, ptr %69, i32 0, i32 58
  %71 = load i32, ptr %70, align 8, !tbaa !134
  %72 = sub nsw i32 %71, 1
  %73 = icmp slt i32 %68, %72
  br i1 %73, label %75, label %74

74:                                               ; preds = %67
  store i32 6, ptr %5, align 4
  call void @llvm.lifetime.end.p0(i64 4, ptr %6) #10
  br label %104

75:                                               ; preds = %67
  %76 = load ptr, ptr %2, align 8, !tbaa !73
  %77 = getelementptr inbounds nuw %struct.dt_control_t, ptr %76, i32 0, i32 59
  %78 = load ptr, ptr %77, align 8, !tbaa !135
  %79 = load i32, ptr %6, align 4, !tbaa !10
  %80 = sext i32 %79 to i64
  %81 = getelementptr inbounds i64, ptr %78, i64 %80
  %82 = load i64, ptr %81, align 8, !tbaa !136
  %83 = call i32 @dt_pthread_join(i64 noundef %82)
  store i32 %83, ptr %4, align 4, !tbaa !10
  br label %84

84:                                               ; preds = %75
  %85 = load i32, ptr getelementptr inbounds nuw (%struct.darktable_t, ptr @darktable, i32 0, i32 2), align 8, !tbaa !132
  %86 = and i32 2, %85
  %87 = icmp ne i32 %86, 0
  br i1 %87, label %88, label %98

88:                                               ; preds = %84
  %89 = load i32, ptr getelementptr inbounds nuw (%struct.darktable_t, ptr @darktable, i32 0, i32 2), align 8, !tbaa !132
  %90 = xor i32 %89, -1
  %91 = and i32 0, %90
  %92 = icmp ne i32 %91, 0
  br i1 %92, label %98, label %93

93:                                               ; preds = %88
  %94 = load i32, ptr %6, align 4, !tbaa !10
  %95 = load i32, ptr %4, align 4, !tbaa !10
  %96 = icmp ne i32 %95, 0
  %97 = select i1 %96, ptr @.str.31, ptr @.str.32
  call void (ptr, ...) @dt_print_ext(ptr noundef @.str.33, i32 noundef %94, ptr noundef %97)
  br label %98

98:                                               ; preds = %93, %88, %84
  br label %99

99:                                               ; preds = %98
  br label %100

100:                                              ; preds = %99
  br label %101

101:                                              ; preds = %100
  %102 = load i32, ptr %6, align 4, !tbaa !10
  %103 = add nsw i32 %102, 1
  store i32 %103, ptr %6, align 4, !tbaa !10
  br label %67

104:                                              ; preds = %74
  call void @llvm.lifetime.start.p0(i64 4, ptr %7) #10
  store i32 0, ptr %7, align 4, !tbaa !10
  br label %105

105:                                              ; preds = %134, %104
  %106 = load i32, ptr %7, align 4, !tbaa !10
  %107 = icmp slt i32 %106, 3
  br i1 %107, label %109, label %108

108:                                              ; preds = %105
  store i32 11, ptr %5, align 4
  call void @llvm.lifetime.end.p0(i64 4, ptr %7) #10
  br label %137

109:                                              ; preds = %105
  %110 = load ptr, ptr %2, align 8, !tbaa !73
  %111 = getelementptr inbounds nuw %struct.dt_control_t, ptr %110, i32 0, i32 68
  %112 = load i32, ptr %7, align 4, !tbaa !10
  %113 = sext i32 %112 to i64
  %114 = getelementptr inbounds [3 x i64], ptr %111, i64 0, i64 %113
  %115 = load i64, ptr %114, align 8, !tbaa !136
  %116 = call i32 @dt_pthread_join(i64 noundef %115)
  store i32 %116, ptr %4, align 4, !tbaa !10
  br label %117

117:                                              ; preds = %109
  %118 = load i32, ptr getelementptr inbounds nuw (%struct.darktable_t, ptr @darktable, i32 0, i32 2), align 8, !tbaa !132
  %119 = and i32 2, %118
  %120 = icmp ne i32 %119, 0
  br i1 %120, label %121, label %131

121:                                              ; preds = %117
  %122 = load i32, ptr getelementptr inbounds nuw (%struct.darktable_t, ptr @darktable, i32 0, i32 2), align 8, !tbaa !132
  %123 = xor i32 %122, -1
  %124 = and i32 0, %123
  %125 = icmp ne i32 %124, 0
  br i1 %125, label %131, label %126

126:                                              ; preds = %121
  %127 = load i32, ptr %7, align 4, !tbaa !10
  %128 = load i32, ptr %4, align 4, !tbaa !10
  %129 = icmp ne i32 %128, 0
  %130 = select i1 %129, ptr @.str.31, ptr @.str.32
  call void (ptr, ...) @dt_print_ext(ptr noundef @.str.34, i32 noundef %127, ptr noundef %130)
  br label %131

131:                                              ; preds = %126, %121, %117
  br label %132

132:                                              ; preds = %131
  br label %133

133:                                              ; preds = %132
  br label %134

134:                                              ; preds = %133
  %135 = load i32, ptr %7, align 4, !tbaa !10
  %136 = add nsw i32 %135, 1
  store i32 %136, ptr %7, align 4, !tbaa !10
  br label %105

137:                                              ; preds = %108
  store i32 0, ptr %5, align 4
  br label %138

138:                                              ; preds = %137, %32
  call void @llvm.lifetime.end.p0(i64 4, ptr %4) #10
  call void @llvm.lifetime.end.p0(i64 4, ptr %3) #10
  %139 = load i32, ptr %5, align 4
  switch i32 %139, label %141 [
    i32 0, label %140
    i32 1, label %140
  ]

140:                                              ; preds = %10, %138, %138
  ret void

141:                                              ; preds = %138
  unreachable
}