; Function Attrs: nounwind uwtable
define void @dt_control_shutdown(ptr noundef %0) local_unnamed_addr #0 {
  %.not = icmp eq ptr %0, null
  br i1 %.not, label %.loopexit, label %2

2:                                                ; preds = %1
  %3 = getelementptr inbounds nuw i8, ptr %0, i64 9800
  %4 = tail call i32 @pthread_mutex_lock(ptr noundef nonnull %3) #13
  %5 = getelementptr inbounds nuw i8, ptr %0, i64 9744
  %6 = atomicrmw xchg ptr %5, i32 0 seq_cst, align 4
  %7 = icmp eq i32 %6, -1
  %8 = getelementptr inbounds nuw i8, ptr %0, i64 9840
  %9 = tail call i32 @pthread_cond_broadcast(ptr noundef nonnull %8) #13
  %10 = tail call i32 @pthread_mutex_unlock(ptr noundef nonnull %3) #13
  %11 = getelementptr inbounds nuw i8, ptr %0, i64 9912
  %12 = load i64, ptr %11, align 8, !tbaa !114
  %13 = tail call i32 @dt_pthread_join(i64 noundef %12) #13
  br i1 %7, label %14, label %.loopexit

14:                                               ; preds = %2
  %15 = load i32, ptr getelementptr inbounds nuw (i8, ptr @darktable, i64 8), align 8, !tbaa !115
  %16 = and i32 %15, 2
  %.not23 = icmp eq i32 %16, 0
  br i1 %.not23, label %18, label %17

17:                                               ; preds = %14
  tail call void (ptr, ...) @dt_print_ext(ptr noundef nonnull @.str.29) #13
  br label %18

18:                                               ; preds = %17, %14
  %19 = getelementptr inbounds nuw i8, ptr %0, i64 9904
  %20 = load i64, ptr %19, align 8, !tbaa !116
  %21 = tail call i32 @dt_pthread_join(i64 noundef %20) #13
  %22 = load i32, ptr getelementptr inbounds nuw (i8, ptr @darktable, i64 8), align 8, !tbaa !115
  %23 = and i32 %22, 2
  %.not24 = icmp eq i32 %23, 0
  br i1 %.not24, label %26, label %24

24:                                               ; preds = %18
  %.not25 = icmp eq i32 %21, 0
  %25 = select i1 %.not25, ptr @.str.32, ptr @.str.31
  tail call void (ptr, ...) @dt_print_ext(ptr noundef nonnull @.str.30, ptr noundef nonnull %25) #13
  br label %26

26:                                               ; preds = %24, %18
  %27 = getelementptr inbounds nuw i8, ptr %0, i64 9888
  %28 = load i32, ptr %27, align 8, !tbaa !117
  %29 = icmp sgt i32 %28, 1
  br i1 %29, label %.lr.ph, label %.preheader

.lr.ph:                                           ; preds = %26
  %30 = getelementptr inbounds nuw i8, ptr %0, i64 9896
  br label %32

.preheader:                                       ; preds = %42, %26
  %31 = getelementptr inbounds nuw i8, ptr %0, i64 10080
  br label %47

32:                                               ; preds = %.lr.ph, %42
  %indvars.iv = phi i64 [ 0, %.lr.ph ], [ %indvars.iv.next, %42 ]
  %33 = load ptr, ptr %30, align 8, !tbaa !118
  %34 = getelementptr inbounds nuw i64, ptr %33, i64 %indvars.iv
  %35 = load i64, ptr %34, align 8, !tbaa !119
  %36 = tail call i32 @dt_pthread_join(i64 noundef %35) #13
  %37 = load i32, ptr getelementptr inbounds nuw (i8, ptr @darktable, i64 8), align 8, !tbaa !115
  %38 = and i32 %37, 2
  %.not28 = icmp eq i32 %38, 0
  br i1 %.not28, label %42, label %39

39:                                               ; preds = %32
  %.not29 = icmp eq i32 %36, 0
  %40 = select i1 %.not29, ptr @.str.32, ptr @.str.31
  %41 = trunc nuw nsw i64 %indvars.iv to i32
  tail call void (ptr, ...) @dt_print_ext(ptr noundef nonnull @.str.33, i32 noundef %41, ptr noundef nonnull %40) #13
  br label %42

42:                                               ; preds = %32, %39
  %indvars.iv.next = add nuw nsw i64 %indvars.iv, 1
  %43 = load i32, ptr %27, align 8, !tbaa !117
  %44 = add nsw i32 %43, -1
  %45 = sext i32 %44 to i64
  %46 = icmp slt i64 %indvars.iv.next, %45
  br i1 %46, label %32, label %.preheader

47:                                               ; preds = %.preheader, %56
  %indvars.iv33 = phi i64 [ 0, %.preheader ], [ %indvars.iv.next34, %56 ]
  %48 = getelementptr inbounds nuw [3 x i64], ptr %31, i64 0, i64 %indvars.iv33
  %49 = load i64, ptr %48, align 8, !tbaa !119
  %50 = tail call i32 @dt_pthread_join(i64 noundef %49) #13
  %51 = load i32, ptr getelementptr inbounds nuw (i8, ptr @darktable, i64 8), align 8, !tbaa !115
  %52 = and i32 %51, 2
  %.not26 = icmp eq i32 %52, 0
  br i1 %.not26, label %56, label %53

53:                                               ; preds = %47
  %.not27 = icmp eq i32 %50, 0
  %54 = select i1 %.not27, ptr @.str.32, ptr @.str.31
  %55 = trunc nuw nsw i64 %indvars.iv33 to i32
  tail call void (ptr, ...) @dt_print_ext(ptr noundef nonnull @.str.34, i32 noundef %55, ptr noundef nonnull %54) #13
  br label %56

56:                                               ; preds = %47, %53
  %indvars.iv.next34 = add nuw nsw i64 %indvars.iv33, 1
  %exitcond.not = icmp eq i64 %indvars.iv.next34, 3
  br i1 %exitcond.not, label %.loopexit, label %47

.loopexit:                                        ; preds = %56, %2, %1
  ret void
}